; Function Attrs: inlinehint mustprogress nounwind optsize uwtable
define internal noundef ptr @"_ZZN8nanobind6detail11func_createILb0ELb1EZL26nanobind_init_test_stl_extRNS_7module_EE4$_23St5tupleIJEEJS6_EJLm0EEJNS_5scopeENS_4nameEEEEP7_objectOT1_PFT2_DpT3_ESt16integer_sequenceImJXspT4_EEEDpRKT5_ENUlPvPSA_PhNS_9rv_policyEPNS0_12cleanup_listEE_8__invokeESO_SP_SQ_SR_ST_"(ptr readnone captures(none) %0, ptr noundef readonly captures(none) %1, ptr noundef readonly captures(none) %2, i32 noundef %3, ptr noundef %4) #18 align 2 {
  %6 = alloca %"struct.nanobind::detail::tuple.388", align 1
  %7 = alloca %"class.std::tuple.390", align 1
  call void @llvm.lifetime.start.p0(i64 1, ptr nonnull %6) #28
  %8 = load ptr, ptr %1, align 8, !tbaa !131
  %9 = load i8, ptr %2, align 1, !tbaa !44
  %10 = call noundef zeroext i1 @_ZN8nanobind6detail11type_casterISt5tupleIJEEiE16from_python_implITpTnmJEEEbNS_6handleEhPNS0_12cleanup_listESt16integer_sequenceImJXspT_EEE(ptr noundef nonnull align 1 dereferenceable(1) %6, ptr %8, i8 noundef zeroext %9, ptr noundef %4) #27
  br i1 %10, label %11, label %"_ZZN8nanobind6detail11func_createILb0ELb1EZL26nanobind_init_test_stl_extRNS_7module_EE4$_23St5tupleIJEEJS6_EJLm0EEJNS_5scopeENS_4nameEEEEP7_objectOT1_PFT2_DpT3_ESt16integer_sequenceImJXspT4_EEEDpRKT5_ENKUlPvPSA_PhNS_9rv_policyEPNS0_12cleanup_listEE_clESO_SP_SQ_SR_ST_.exit"

11:                                               ; preds = %5
  call void @llvm.lifetime.start.p0(i64 1, ptr nonnull %7) #28
  %12 = call ptr @_ZN8nanobind6detail11type_casterISt5tupleIJEEiE13from_cpp_implIS3_TpTnmJEEENS_6handleEOT_NS_9rv_policyEPNS0_12cleanup_listESt16integer_sequenceImJXspT0_EEE(ptr noundef nonnull align 1 dereferenceable(1) %7, i32 noundef %3, ptr noundef %4) #27
  call void @llvm.lifetime.end.p0(i64 1, ptr nonnull %7) #28
  br label %"_ZZN8nanobind6detail11func_createILb0ELb1EZL26nanobind_init_test_stl_extRNS_7module_EE4$_23St5tupleIJEEJS6_EJLm0EEJNS_5scopeENS_4nameEEEEP7_objectOT1_PFT2_DpT3_ESt16integer_sequenceImJXspT4_EEEDpRKT5_ENKUlPvPSA_PhNS_9rv_policyEPNS0_12cleanup_listEE_clESO_SP_SQ_SR_ST_.exit"

"_ZZN8nanobind6detail11func_createILb0ELb1EZL26nanobind_init_test_stl_extRNS_7module_EE4$_23St5tupleIJEEJS6_EJLm0EEJNS_5scopeENS_4nameEEEEP7_objectOT1_PFT2_DpT3_ESt16integer_sequenceImJXspT4_EEEDpRKT5_ENKUlPvPSA_PhNS_9rv_policyEPNS0_12cleanup_listEE_clESO_SP_SQ_SR_ST_.exit": ; preds = %5, %11
  %.0.i = phi ptr [ %12, %11 ], [ inttoptr (i64 1 to ptr), %5 ]
  call void @llvm.lifetime.end.p0(i64 1, ptr nonnull %6) #28
  ret ptr %.0.i
}